; Function Attrs: mustprogress uwtable
define hidden noundef zeroext i1 @_ZN7specrel6solver10post_visitEP4exprbb(ptr noundef nonnull align 8 dereferenceable(128) %0, ptr noundef %1, i1 zeroext %2, i1 zeroext %3) unnamed_addr #3 align 2 {
  %5 = tail call noundef ptr @_ZNK3euf13th_euf_solver10expr2enodeEP4expr(ptr noundef nonnull align 8 dereferenceable(108) %0, ptr noundef %1)
  %.not = icmp eq ptr %5, null
  br i1 %.not, label %6, label %8

6:                                                ; preds = %4
  %7 = tail call noundef ptr @_ZN3euf13th_euf_solver8mk_enodeEP4exprb(ptr noundef nonnull align 8 dereferenceable(108) %0, ptr noundef %1, i1 noundef zeroext false)
  br label %8

8:                                                ; preds = %6, %4
  %.0 = phi ptr [ %5, %4 ], [ %7, %6 ]
  %9 = load ptr, ptr %0, align 8, !tbaa !388
  %10 = getelementptr inbounds nuw i8, ptr %9, i64 528
  %11 = load ptr, ptr %10, align 8
  %12 = tail call noundef i32 %11(ptr noundef nonnull align 8 dereferenceable(128) %0, ptr noundef %.0)
  ret i1 true
}